target datalayout = "e-m:e-p270:32:32-p271:32:32-p272:64:64-i64:64-i128:128-f80:128-n8:16:32:64-S128"
target triple = "x86_64-pc-linux-gnu"

%union.Cubic = type { [4 x float] }

; Function Attrs: nounwind uwtable
define internal void @ResampleFrame_Generic(ptr noundef %0, ptr noundef %1, ptr noundef %2, float noundef %3, i32 noundef %4) #0 {
  %6 = alloca ptr, align 8
  %7 = alloca ptr, align 8
  %8 = alloca ptr, align 8
  %9 = alloca float, align 4
  %10 = alloca i32, align 4
  %11 = alloca float, align 4
  %12 = alloca float, align 4
  %13 = alloca i32, align 4
  %14 = alloca i32, align 4
  %15 = alloca [10 x float], align 16
  %16 = alloca float, align 4
  store ptr %0, ptr %6, align 8
  store ptr %1, ptr %7, align 8
  store ptr %2, ptr %8, align 8
  store float %3, ptr %9, align 4
  store i32 %4, ptr %10, align 4
  call void @llvm.lifetime.start.p0(i64 4, ptr %11) #6
  %17 = load float, ptr %9, align 4
  %18 = load float, ptr %9, align 4
  %19 = fmul float %17, %18
  store float %19, ptr %11, align 4
  call void @llvm.lifetime.start.p0(i64 4, ptr %12) #6
  %20 = load float, ptr %9, align 4
  %21 = load float, ptr %11, align 4
  %22 = fmul float %20, %21
  store float %22, ptr %12, align 4
  call void @llvm.lifetime.start.p0(i64 4, ptr %13) #6
  call void @llvm.lifetime.start.p0(i64 4, ptr %14) #6
  call void @llvm.lifetime.start.p0(i64 40, ptr %15) #6
  store i32 0, ptr %13, align 4
  br label %23

23:                                               ; preds = %48, %5
  %24 = load i32, ptr %13, align 4
  %25 = icmp slt i32 %24, 10
  br i1 %25, label %26, label %53

26:                                               ; preds = %23
  %27 = load ptr, ptr %8, align 8
  %28 = getelementptr inbounds [4 x float], ptr %27, i64 0, i64 0
  %29 = load float, ptr %28, align 4
  %30 = load ptr, ptr %8, align 8
  %31 = getelementptr inbounds [4 x float], ptr %30, i64 0, i64 1
  %32 = load float, ptr %31, align 4
  %33 = load float, ptr %9, align 4
  %34 = call float @llvm.fmuladd.f32(float %32, float %33, float %29)
  %35 = load ptr, ptr %8, align 8
  %36 = getelementptr inbounds [4 x float], ptr %35, i64 0, i64 2
  %37 = load float, ptr %36, align 4
  %38 = load float, ptr %11, align 4
  %39 = call float @llvm.fmuladd.f32(float %37, float %38, float %34)
  %40 = load ptr, ptr %8, align 8
  %41 = getelementptr inbounds [4 x float], ptr %40, i64 0, i64 3
  %42 = load float, ptr %41, align 4
  %43 = load float, ptr %12, align 4
  %44 = call float @llvm.fmuladd.f32(float %42, float %43, float %39)
  %45 = load i32, ptr %13, align 4
  %46 = sext i32 %45 to i64
  %47 = getelementptr inbounds [10 x float], ptr %15, i64 0, i64 %46
  store float %44, ptr %47, align 4
  br label %48

48:                                               ; preds = %26
  %49 = load i32, ptr %13, align 4
  %50 = add nsw i32 %49, 1
  store i32 %50, ptr %13, align 4
  %51 = load ptr, ptr %8, align 8
  %52 = getelementptr inbounds nuw %union.Cubic, ptr %51, i32 1
  store ptr %52, ptr %8, align 8
  br label %23, !llvm.loop !13

53:                                               ; preds = %23
  store i32 0, ptr %14, align 4
  br label %54

54:                                               ; preds = %87, %53
  %55 = load i32, ptr %14, align 4
  %56 = load i32, ptr %10, align 4
  %57 = icmp slt i32 %55, %56
  br i1 %57, label %58, label %90

58:                                               ; preds = %54
  call void @llvm.lifetime.start.p0(i64 4, ptr %16) #6
  store float 0.000000e+00, ptr %16, align 4
  store i32 0, ptr %13, align 4
  br label %59

59:                                               ; preds = %78, %58
  %60 = load i32, ptr %13, align 4
  %61 = icmp slt i32 %60, 10
  br i1 %61, label %62, label %81

62:                                               ; preds = %59
  %63 = load ptr, ptr %6, align 8
  %64 = load i32, ptr %13, align 4
  %65 = load i32, ptr %10, align 4
  %66 = mul nsw i32 %64, %65
  %67 = load i32, ptr %14, align 4
  %68 = add nsw i32 %66, %67
  %69 = sext i32 %68 to i64
  %70 = getelementptr inbounds float, ptr %63, i64 %69
  %71 = load float, ptr %70, align 4
  %72 = load i32, ptr %13, align 4
  %73 = sext i32 %72 to i64
  %74 = getelementptr inbounds [10 x float], ptr %15, i64 0, i64 %73
  %75 = load float, ptr %74, align 4
  %76 = load float, ptr %16, align 4
  %77 = call float @llvm.fmuladd.f32(float %71, float %75, float %76)
  store float %77, ptr %16, align 4
  br label %78

78:                                               ; preds = %62
  %79 = load i32, ptr %13, align 4
  %80 = add nsw i32 %79, 1
  store i32 %80, ptr %13, align 4
  br label %59, !llvm.loop !14

81:                                               ; preds = %59
  %82 = load float, ptr %16, align 4
  %83 = load ptr, ptr %7, align 8
  %84 = load i32, ptr %14, align 4
  %85 = sext i32 %84 to i64
  %86 = getelementptr inbounds float, ptr %83, i64 %85
  store float %82, ptr %86, align 4
  call void @llvm.lifetime.end.p0(i64 4, ptr %16) #6
  br label %87

87:                                               ; preds = %81
  %88 = load i32, ptr %14, align 4
  %89 = add nsw i32 %88, 1
  store i32 %89, ptr %14, align 4
  br label %54, !llvm.loop !15

90:                                               ; preds = %54
  call void @llvm.lifetime.end.p0(i64 40, ptr %15) #6
  call void @llvm.lifetime.end.p0(i64 4, ptr %14) #6
  call void @llvm.lifetime.end.p0(i64 4, ptr %13) #6
  call void @llvm.lifetime.end.p0(i64 4, ptr %12) #6
  call void @llvm.lifetime.end.p0(i64 4, ptr %11) #6
  ret void
}