; Function Attrs: nofree norecurse nosync nounwind memory(argmem: readwrite) uwtable
define internal void @ResampleFrame_Generic(ptr noundef readonly captures(none) %0, ptr noundef writeonly captures(none) %1, ptr noundef readonly captures(none) %2, float noundef %3, i32 noundef %4) #5 {
  %6 = alloca [10 x float], align 16
  %7 = fmul float %3, %3
  %8 = fmul float %3, %7
  call void @llvm.lifetime.start.p0(i64 40, ptr nonnull %6) #8
  br label %11

.preheader32:                                     ; preds = %11
  %9 = icmp sgt i32 %4, 0
  br i1 %9, label %.preheader.preheader, label %._crit_edge

.preheader.preheader:                             ; preds = %.preheader32
  %10 = zext nneg i32 %4 to i64
  br label %.preheader

11:                                               ; preds = %5, %11
  %indvars.iv = phi i64 [ 0, %5 ], [ %indvars.iv.next, %11 ]
  %.03033 = phi ptr [ %2, %5 ], [ %23, %11 ]
  %12 = load float, ptr %.03033, align 4
  %13 = getelementptr inbounds nuw i8, ptr %.03033, i64 4
  %14 = load float, ptr %13, align 4
  %15 = tail call float @llvm.fmuladd.f32(float %14, float %3, float %12)
  %16 = getelementptr inbounds nuw i8, ptr %.03033, i64 8
  %17 = load float, ptr %16, align 4
  %18 = tail call float @llvm.fmuladd.f32(float %17, float %7, float %15)
  %19 = getelementptr inbounds nuw i8, ptr %.03033, i64 12
  %20 = load float, ptr %19, align 4
  %21 = tail call float @llvm.fmuladd.f32(float %20, float %8, float %18)
  %22 = getelementptr inbounds nuw [10 x float], ptr %6, i64 0, i64 %indvars.iv
  store float %21, ptr %22, align 4
  %indvars.iv.next = add nuw nsw i64 %indvars.iv, 1
  %23 = getelementptr inbounds nuw i8, ptr %.03033, i64 16
  %exitcond.not = icmp eq i64 %indvars.iv.next, 10
  br i1 %exitcond.not, label %.preheader32, label %11, !llvm.loop !11

.preheader:                                       ; preds = %.preheader.preheader, %30
  %indvars.iv43 = phi i64 [ 0, %.preheader.preheader ], [ %indvars.iv.next44, %30 ]
  %invariant.gep = getelementptr inbounds nuw float, ptr %0, i64 %indvars.iv43
  br label %24

24:                                               ; preds = %.preheader, %24
  %indvars.iv39 = phi i64 [ 0, %.preheader ], [ %indvars.iv.next40, %24 ]
  %.036 = phi float [ 0.000000e+00, %.preheader ], [ %29, %24 ]
  %25 = mul nuw nsw i64 %indvars.iv39, %10
  %gep = getelementptr inbounds nuw float, ptr %invariant.gep, i64 %25
  %26 = load float, ptr %gep, align 4
  %27 = getelementptr inbounds nuw [10 x float], ptr %6, i64 0, i64 %indvars.iv39
  %28 = load float, ptr %27, align 4
  %29 = tail call float @llvm.fmuladd.f32(float %26, float %28, float %.036)
  %indvars.iv.next40 = add nuw nsw i64 %indvars.iv39, 1
  %exitcond42.not = icmp eq i64 %indvars.iv.next40, 10
  br i1 %exitcond42.not, label %30, label %24, !llvm.loop !12

30:                                               ; preds = %24
  %31 = getelementptr inbounds nuw float, ptr %1, i64 %indvars.iv43
  store float %29, ptr %31, align 4
  %indvars.iv.next44 = add nuw nsw i64 %indvars.iv43, 1
  %exitcond46.not = icmp eq i64 %indvars.iv.next44, %10
  br i1 %exitcond46.not, label %._crit_edge, label %.preheader, !llvm.loop !13

._crit_edge:                                      ; preds = %30, %.preheader32
  call void @llvm.lifetime.end.p0(i64 40, ptr nonnull %6) #8
  ret void
}